; ModuleID = 'source-C-CXX/14/47.c'
source_filename = "source-C-CXX/14/47.c"
target datalayout = "e-m:e-p270:32:32-p271:32:32-p272:64:64-i64:64-f80:128-n8:16:32:64-S128"
target triple = "x86_64-pc-linux-gnu"

@.str = private unnamed_addr constant [3 x i8] c"%d\00", align 1
@.str.1 = private unnamed_addr constant [4 x i8] c"%d\0A\00", align 1

; Function Attrs: nofree nounwind sspstrong uwtable
define dso_local i32 @main() local_unnamed_addr #0 {
  %1 = alloca i32, align 4
  %2 = alloca [100 x i32], align 16
  %3 = alloca [100 x i32], align 16
  %4 = alloca [100 x [100 x i32]], align 16
  %5 = bitcast i32* %1 to i8*
  call void @llvm.lifetime.start.p0i8(i64 4, i8* nonnull %5) #3
  %6 = bitcast [100 x i32]* %2 to i8*
  call void @llvm.lifetime.start.p0i8(i64 400, i8* nonnull %6) #3
  %7 = bitcast [100 x i32]* %3 to i8*
  call void @llvm.lifetime.start.p0i8(i64 400, i8* nonnull %7) #3
  %8 = bitcast [100 x [100 x i32]]* %4 to i8*
  call void @llvm.lifetime.start.p0i8(i64 40000, i8* nonnull %8) #3
  %9 = call i32 (i8*, ...) @__isoc99_scanf(i8* getelementptr inbounds ([3 x i8], [3 x i8]* @.str, i64 0, i64 0), i32* nonnull %1)
  %10 = load i32, i32* %1, align 4, !tbaa !5
  %11 = icmp slt i32 %10, 1
  br i1 %11, label %57, label %12

12:                                               ; preds = %0, %43
  %13 = phi i32 [ %44, %43 ], [ %10, %0 ]
  %14 = phi i64 [ %48, %43 ], [ 1, %0 ]
  %15 = phi i32 [ %46, %43 ], [ 1, %0 ]
  %16 = phi i32 [ %45, %43 ], [ 1, %0 ]
  %17 = icmp slt i32 %13, 1
  br i1 %17, label %43, label %18

18:                                               ; preds = %12
  %19 = trunc i64 %14 to i32
  br label %20

20:                                               ; preds = %18, %36
  %21 = phi i64 [ 1, %18 ], [ %39, %36 ]
  %22 = phi i32 [ %15, %18 ], [ %38, %36 ]
  %23 = phi i32 [ %16, %18 ], [ %37, %36 ]
  %24 = getelementptr inbounds [100 x [100 x i32]], [100 x [100 x i32]]* %4, i64 0, i64 %14, i64 %21
  %25 = call i32 (i8*, ...) @__isoc99_scanf(i8* getelementptr inbounds ([3 x i8], [3 x i8]* @.str, i64 0, i64 0), i32* nonnull %24)
  %26 = load i32, i32* %24, align 4, !tbaa !5
  %27 = icmp eq i32 %26, 0
  br i1 %27, label %28, label %36

28:                                               ; preds = %20
  %29 = sext i32 %23 to i64
  %30 = getelementptr inbounds [100 x i32], [100 x i32]* %2, i64 0, i64 %29
  %31 = trunc i64 %21 to i32
  store i32 %31, i32* %30, align 4, !tbaa !5
  %32 = add nsw i32 %23, 1
  %33 = sext i32 %22 to i64
  %34 = getelementptr inbounds [100 x i32], [100 x i32]* %3, i64 0, i64 %33
  store i32 %19, i32* %34, align 4, !tbaa !5
  %35 = add nsw i32 %22, 1
  br label %36

36:                                               ; preds = %20, %28
  %37 = phi i32 [ %32, %28 ], [ %23, %20 ]
  %38 = phi i32 [ %35, %28 ], [ %22, %20 ]
  %39 = add nuw nsw i64 %21, 1
  %40 = load i32, i32* %1, align 4, !tbaa !5
  %41 = sext i32 %40 to i64
  %42 = icmp slt i64 %21, %41
  br i1 %42, label %20, label %43, !llvm.loop !9

43:                                               ; preds = %36, %12
  %44 = phi i32 [ %13, %12 ], [ %40, %36 ]
  %45 = phi i32 [ %16, %12 ], [ %37, %36 ]
  %46 = phi i32 [ %15, %12 ], [ %38, %36 ]
  %47 = sext i32 %44 to i64
  %48 = add nuw nsw i64 %14, 1
  %49 = icmp slt i64 %14, %47
  br i1 %49, label %12, label %50, !llvm.loop !11

50:                                               ; preds = %43
  %51 = getelementptr inbounds [100 x i32], [100 x i32]* %3, i64 0, i64 1
  %52 = load i32, i32* %51, align 4, !tbaa !5
  %53 = getelementptr inbounds [100 x i32], [100 x i32]* %2, i64 0, i64 1
  %54 = load i32, i32* %53, align 4, !tbaa !5
  %55 = xor i32 %52, -1
  %56 = xor i32 %54, -1
  br label %57

57:                                               ; preds = %50, %0
  %58 = phi i32 [ undef, %0 ], [ %56, %50 ]
  %59 = phi i32 [ undef, %0 ], [ %55, %50 ]
  %60 = phi i32 [ 1, %0 ], [ %45, %50 ]
  %61 = phi i32 [ 1, %0 ], [ %46, %50 ]
  %62 = add nsw i32 %61, -1
  %63 = sext i32 %62 to i64
  %64 = getelementptr inbounds [100 x i32], [100 x i32]* %3, i64 0, i64 %63
  %65 = load i32, i32* %64, align 4, !tbaa !5
  %66 = add i32 %65, %59
  %67 = add nsw i32 %60, -1
  %68 = sext i32 %67 to i64
  %69 = getelementptr inbounds [100 x i32], [100 x i32]* %2, i64 0, i64 %68
  %70 = load i32, i32* %69, align 4, !tbaa !5
  %71 = add i32 %70, %58
  %72 = mul nsw i32 %71, %66
  %73 = call i32 (i8*, ...) @printf(i8* nonnull dereferenceable(1) getelementptr inbounds ([4 x i8], [4 x i8]* @.str.1, i64 0, i64 0), i32 %72)
  call void @llvm.lifetime.end.p0i8(i64 40000, i8* nonnull %8) #3
  call void @llvm.lifetime.end.p0i8(i64 400, i8* nonnull %7) #3
  call void @llvm.lifetime.end.p0i8(i64 400, i8* nonnull %6) #3
  call void @llvm.lifetime.end.p0i8(i64 4, i8* nonnull %5) #3
  ret i32 0
}

; Function Attrs: argmemonly mustprogress nofree nosync nounwind willreturn
declare void @llvm.lifetime.start.p0i8(i64 immarg, i8* nocapture) #1

; Function Attrs: nofree nounwind
declare noundef i32 @__isoc99_scanf(i8* nocapture noundef readonly, ...) local_unnamed_addr #2

; Function Attrs: nofree nounwind
declare noundef i32 @printf(i8* nocapture noundef readonly, ...) local_unnamed_addr #2

; Function Attrs: argmemonly mustprogress nofree nosync nounwind willreturn
declare void @llvm.lifetime.end.p0i8(i64 immarg, i8* nocapture) #1


!llvm.module.flags = !{!0, !1, !2, !3}
!llvm.ident = !{!4}

!0 = !{i32 1, !"wchar_size", i32 4}
!1 = !{i32 7, !"PIC Level", i32 2}
!2 = !{i32 7, !"PIE Level", i32 2}
!3 = !{i32 7, !"uwtable", i32 1}
!4 = !{!"clang version 13.0.0"}
!5 = !{!6, !6, i64 0}
!6 = !{!"int", !7, i64 0}
!7 = !{!"omnipotent char", !8, i64 0}
!8 = !{!"Simple C/C++ TBAA"}
!9 = distinct !{!9, !10}
!10 = !{!"llvm.loop.mustprogress"}
!11 = distinct !{!11, !10, !12}
!12 = !{!"llvm.loop.unswitch.partial.disable"}
